target datalayout = "e-m:e-p270:32:32-p271:32:32-p272:64:64-i64:64-i128:128-f80:128-n8:16:32:64-S128"
target triple = "x86_64-pc-linux-gnu"

%struct.lua_State = type { ptr, i8, i8, i8, i8, i16, %union.StkIdRel, ptr, ptr, %union.StkIdRel, %union.StkIdRel, ptr, %union.StkIdRel, ptr, ptr, ptr, %struct.CallInfo, ptr, i64, i32, i32, i32, i32, i32, %struct.anon.2 }
%union.StkIdRel = type { ptr }
%struct.CallInfo = type { %union.StkIdRel, %union.StkIdRel, ptr, ptr, %union.anon, %union.anon.1, i32 }
%union.anon = type { %struct.anon.0 }
%struct.anon.0 = type { ptr, i64, i64 }
%union.anon.1 = type { i32 }
%struct.anon.2 = type { i32, i32 }
%struct.anon = type { ptr, i32, i32 }

; Function Attrs: nounwind uwtable
define hidden ptr @luaE_extendCI(ptr noundef %0) #0 {
  %2 = alloca ptr, align 8
  %3 = alloca ptr, align 8
  store ptr %0, ptr %2, align 8, !tbaa !22
  call void @llvm.lifetime.start.p0(i64 8, ptr %3) #6
  %4 = load ptr, ptr %2, align 8, !tbaa !22
  %5 = call ptr @luaM_malloc_(ptr noundef %4, i64 noundef 64, i32 noundef 0)
  store ptr %5, ptr %3, align 8, !tbaa !23
  %6 = load ptr, ptr %3, align 8, !tbaa !23
  %7 = load ptr, ptr %2, align 8, !tbaa !22
  %8 = getelementptr inbounds nuw %struct.lua_State, ptr %7, i32 0, i32 8
  %9 = load ptr, ptr %8, align 8, !tbaa !25
  %10 = getelementptr inbounds nuw %struct.CallInfo, ptr %9, i32 0, i32 3
  store ptr %6, ptr %10, align 8, !tbaa !32
  %11 = load ptr, ptr %2, align 8, !tbaa !22
  %12 = getelementptr inbounds nuw %struct.lua_State, ptr %11, i32 0, i32 8
  %13 = load ptr, ptr %12, align 8, !tbaa !25
  %14 = load ptr, ptr %3, align 8, !tbaa !23
  %15 = getelementptr inbounds nuw %struct.CallInfo, ptr %14, i32 0, i32 2
  store ptr %13, ptr %15, align 8, !tbaa !33
  %16 = load ptr, ptr %3, align 8, !tbaa !23
  %17 = getelementptr inbounds nuw %struct.CallInfo, ptr %16, i32 0, i32 3
  store ptr null, ptr %17, align 8, !tbaa !32
  %18 = load ptr, ptr %3, align 8, !tbaa !23
  %19 = getelementptr inbounds nuw %struct.CallInfo, ptr %18, i32 0, i32 4
  %20 = getelementptr inbounds nuw %struct.anon, ptr %19, i32 0, i32 1
  store volatile i32 0, ptr %20, align 8, !tbaa !34
  %21 = load ptr, ptr %2, align 8, !tbaa !22
  %22 = getelementptr inbounds nuw %struct.lua_State, ptr %21, i32 0, i32 5
  %23 = load i16, ptr %22, align 4, !tbaa !35
  %24 = add i16 %23, 1
  store i16 %24, ptr %22, align 4, !tbaa !35
  %25 = load ptr, ptr %3, align 8, !tbaa !23
  call void @llvm.lifetime.end.p0(i64 8, ptr %3) #6
  ret ptr %25
}