; Function Attrs: nounwind uwtable
define hidden ptr @luaE_extendCI(ptr noundef %0) local_unnamed_addr #2 {
  %2 = tail call ptr @luaM_malloc_(ptr noundef %0, i64 noundef 64, i32 noundef 0) #8
  %3 = getelementptr inbounds nuw i8, ptr %0, i64 32
  %4 = load ptr, ptr %3, align 8, !tbaa !19
  %5 = getelementptr inbounds nuw i8, ptr %4, i64 24
  store ptr %2, ptr %5, align 8, !tbaa !28
  %6 = getelementptr inbounds nuw i8, ptr %2, i64 16
  store ptr %4, ptr %6, align 8, !tbaa !29
  %7 = getelementptr inbounds nuw i8, ptr %2, i64 24
  store ptr null, ptr %7, align 8, !tbaa !28
  %8 = getelementptr inbounds nuw i8, ptr %2, i64 40
  store volatile i32 0, ptr %8, align 8, !tbaa !30
  %9 = getelementptr inbounds nuw i8, ptr %0, i64 12
  %10 = load i16, ptr %9, align 4, !tbaa !31
  %11 = add i16 %10, 1
  store i16 %11, ptr %9, align 4, !tbaa !31
  ret ptr %2
}